target datalayout = "e-m:e-p270:32:32-p271:32:32-p272:64:64-i64:64-i128:128-f80:128-n8:16:32:64-S128"
target triple = "x86_64-unknown-linux-gnu"

@drm_fb_swab.__print_once = internal unnamed_addr global i1 false, section ".data..read_mostly", align 1
@.str = private unnamed_addr constant [48 x i8] c"[drm] Format %p4cc has unsupported pixel size.\0A\00", align 1

; Function Attrs: fn_ret_thunk_extern nounwind null_pointer_is_valid
define dso_local void @drm_fb_swab(ptr nocapture noundef readonly %0, ptr noundef %1, ptr nocapture noundef readonly %2, ptr nocapture noundef readonly %3, ptr nocapture noundef readonly %4, i1 noundef zeroext %5, ptr nocapture noundef %6) #1 align 16 {
  %8 = alloca i8, align 1
  %9 = getelementptr inbounds i8, ptr %3, i64 72
  %10 = load ptr, ptr %9, align 8
  call void @llvm.lifetime.start.p0(i64 1, ptr nonnull %8) #14
  store i8 0, ptr %8, align 1, !annotation !11
  %11 = tail call i32 @drm_format_info_bpp(ptr noundef %10, i32 noundef 0) #14
  %12 = add i32 %11, 7
  %13 = lshr i32 %12, 3
  %14 = trunc i32 %13 to i8
  store i8 %14, ptr %8, align 1
  switch i8 %14, label %16 [
    i8 4, label %26
    i8 2, label %15
  ]

15:                                               ; preds = %7
  br label %26

16:                                               ; preds = %7
  %17 = load i1, ptr @drm_fb_swab.__print_once, align 1
  br i1 %17, label %28, label %18

18:                                               ; preds = %16
  store i1 true, ptr @drm_fb_swab.__print_once, align 1
  %19 = load ptr, ptr %3, align 8
  %20 = icmp eq ptr %19, null
  br i1 %20, label %24, label %21

21:                                               ; preds = %18
  %22 = getelementptr inbounds i8, ptr %19, i64 8
  %23 = load ptr, ptr %22, align 8
  br label %24

24:                                               ; preds = %21, %18
  %25 = phi ptr [ %23, %21 ], [ null, %18 ]
  tail call void (ptr, ptr, ...) @_dev_warn(ptr noundef %25, ptr noundef nonnull @.str, ptr noundef %10) #15
  br label %28

26:                                               ; preds = %15, %7
  %27 = phi ptr [ @drm_fb_swab16_line, %15 ], [ @drm_fb_swab32_line, %7 ]
  call fastcc void @drm_fb_xfrm(ptr noundef %0, ptr noundef %1, ptr noundef nonnull %8, ptr noundef %2, ptr noundef %3, ptr noundef %4, i1 noundef zeroext %5, ptr noundef %6, ptr noundef nonnull %27)
  br label %28

28:                                               ; preds = %26, %24, %16
  call void @llvm.lifetime.end.p0(i64 1, ptr nonnull %8) #14
  ret void
}