; Function Attrs: fn_ret_thunk_extern nounwind null_pointer_is_valid
define dso_local void @drm_fb_swab(ptr nocapture noundef readonly %0, ptr noundef %1, ptr nocapture noundef readonly %2, ptr nocapture noundef readonly %3, ptr nocapture noundef readonly %4, i1 noundef zeroext %5, ptr nocapture noundef %6) #1 align 16 {
  %8 = getelementptr inbounds i8, ptr %3, i64 72
  %9 = load ptr, ptr %8, align 8
  %10 = tail call i32 @drm_format_info_bpp(ptr noundef %9, i32 noundef 0) #14
  %11 = add i32 %10, 7
  %12 = lshr i32 %11, 3
  %13 = trunc i32 %12 to i8
  switch i8 %13, label %16 [
    i8 4, label %.split1
    i8 2, label %.split
  ]

.split1:                                          ; preds = %7
  %.val = load ptr, ptr %0, align 8
  %14 = getelementptr i8, ptr %0, i64 8
  %.val2 = load i8, ptr %14, align 8, !range !5, !noundef !6
  %.val4 = load ptr, ptr %2, align 8
  tail call fastcc void @drm_fb_xfrm(ptr %.val, i8 %.val2, ptr noundef %1, i8 4, ptr %.val4, ptr noundef %3, ptr noundef %4, i1 noundef zeroext %5, ptr noundef %6, ptr noundef nonnull @drm_fb_swab32_line)
  br label %26

.split:                                           ; preds = %7
  %.val5 = load ptr, ptr %0, align 8
  %15 = getelementptr i8, ptr %0, i64 8
  %.val6 = load i8, ptr %15, align 8, !range !5, !noundef !6
  %.val8 = load ptr, ptr %2, align 8
  tail call fastcc void @drm_fb_xfrm(ptr %.val5, i8 %.val6, ptr noundef %1, i8 2, ptr %.val8, ptr noundef %3, ptr noundef %4, i1 noundef zeroext %5, ptr noundef %6, ptr noundef nonnull @drm_fb_swab16_line)
  br label %26

16:                                               ; preds = %7
  %17 = load i1, ptr @drm_fb_swab.__print_once, align 1
  br i1 %17, label %26, label %18

18:                                               ; preds = %16
  store i1 true, ptr @drm_fb_swab.__print_once, align 1
  %19 = load ptr, ptr %3, align 8
  %20 = icmp eq ptr %19, null
  br i1 %20, label %24, label %21

21:                                               ; preds = %18
  %22 = getelementptr inbounds i8, ptr %19, i64 8
  %23 = load ptr, ptr %22, align 8
  br label %24

24:                                               ; preds = %21, %18
  %25 = phi ptr [ %23, %21 ], [ null, %18 ]
  tail call void (ptr, ptr, ...) @_dev_warn(ptr noundef %25, ptr noundef nonnull @.str, ptr noundef %9) #15
  br label %26

26:                                               ; preds = %.split, %.split1, %24, %16
  ret void
}